; Function Attrs: mustprogress uwtable
define void @_ZN6colvar16dipole_magnitude10calc_valueEv(ptr noundef nonnull align 8 captures(none) dereferenceable(1640) initializes((600, 608), (1616, 1640)) %0) unnamed_addr #2 align 2 {
  %2 = alloca %"class.colvarmodule::rvector", align 8
  call void @llvm.lifetime.start.p0(i64 24, ptr nonnull %2) #26
  %3 = getelementptr inbounds nuw i8, ptr %0, i64 1608
  %4 = load ptr, ptr %3, align 8, !tbaa !314
  %5 = getelementptr inbounds nuw i8, ptr %4, i64 1400
  call void @llvm.memcpy.p0.p0.i64(ptr noundef nonnull align 8 dereferenceable(24) %2, ptr noundef nonnull align 8 dereferenceable(24) %5, i64 24, i1 false), !tbaa.struct !94
  %6 = call noundef i32 @_ZN12colvarmodule10atom_group11calc_dipoleERKNS_7rvectorE(ptr noundef nonnull align 8 dereferenceable(1496) %4, ptr noundef nonnull align 8 dereferenceable(24) %2)
  %7 = load ptr, ptr %3, align 8, !tbaa !314
  %8 = getelementptr inbounds nuw i8, ptr %7, i64 1448
  %9 = getelementptr inbounds nuw i8, ptr %0, i64 1616
  call void @llvm.memmove.p0.p0.i64(ptr noundef nonnull align 8 dereferenceable(24) %9, ptr noundef nonnull align 8 dereferenceable(24) %8, i64 24, i1 false)
  %10 = load double, ptr %9, align 8, !tbaa !95
  %11 = getelementptr inbounds nuw i8, ptr %0, i64 1624
  %12 = load double, ptr %11, align 8, !tbaa !96
  %13 = fmul double %12, %12
  %14 = call double @llvm.fmuladd.f64(double %10, double %10, double %13)
  %15 = getelementptr inbounds nuw i8, ptr %0, i64 1632
  %16 = load double, ptr %15, align 8, !tbaa !97
  %17 = call noundef double @llvm.fmuladd.f64(double %16, double %16, double %14)
  %sqrt.i = call noundef double @llvm.sqrt.f64(double %17)
  %18 = getelementptr inbounds nuw i8, ptr %0, i64 600
  store double %sqrt.i, ptr %18, align 8, !tbaa !98
  call void @llvm.lifetime.end.p0(i64 24, ptr nonnull %2) #26
  ret void
}